target datalayout = "e-m:e-p270:32:32-p271:32:32-p272:64:64-i64:64-i128:128-f80:128-n8:16:32:64-S128"
target triple = "x86_64-pc-linux-gnu"

@MINIMUM_MEMORY_SIZE_FAILURE = global i64 -1, align 8
@MAXIMUM_MEMORY_SIZE_FAILURE = global i64 -1, align 8

; Function Attrs: nounwind uwtable
define internal ptr @ctest_libRealloc(ptr noundef %0, ptr noundef %1, i64 noundef %2) #0 {
  %4 = alloca ptr, align 8
  %5 = alloca ptr, align 8
  %6 = alloca ptr, align 8
  %7 = alloca i64, align 8
  store ptr %0, ptr %5, align 8, !tbaa !14
  store ptr %1, ptr %6, align 8, !tbaa !14
  store i64 %2, ptr %7, align 8, !tbaa !38
  %8 = load i64, ptr @MINIMUM_MEMORY_SIZE_FAILURE, align 8, !tbaa !38
  %9 = load i64, ptr %7, align 8, !tbaa !38
  %10 = icmp ule i64 %8, %9
  br i1 %10, label %11, label %16

11:                                               ; preds = %3
  %12 = load i64, ptr %7, align 8, !tbaa !38
  %13 = load i64, ptr @MAXIMUM_MEMORY_SIZE_FAILURE, align 8, !tbaa !38
  %14 = icmp ule i64 %12, %13
  br i1 %14, label %15, label %16

15:                                               ; preds = %11
  store ptr null, ptr %4, align 8
  br label %20

16:                                               ; preds = %11, %3
  %17 = load ptr, ptr %6, align 8, !tbaa !14
  %18 = load i64, ptr %7, align 8, !tbaa !38
  %19 = call ptr @realloc(ptr noundef %17, i64 noundef %18) #15
  store ptr %19, ptr %4, align 8
  br label %20

20:                                               ; preds = %16, %15
  %21 = load ptr, ptr %4, align 8
  ret ptr %21
}