; Function Attrs: mustprogress nounwind willreturn memory(read, argmem: readwrite, inaccessiblemem: readwrite) uwtable
define internal noalias noundef ptr @ctest_libRealloc(ptr readnone captures(none) %0, ptr noundef captures(none) %1, i64 noundef %2) #12 {
  %4 = load i64, ptr @MINIMUM_MEMORY_SIZE_FAILURE, align 8, !tbaa !27
  %.not = icmp ugt i64 %4, %2
  %5 = load i64, ptr @MAXIMUM_MEMORY_SIZE_FAILURE, align 8
  %.not5 = icmp ugt i64 %2, %5
  %or.cond = select i1 %.not, i1 true, i1 %.not5
  br i1 %or.cond, label %6, label %8

6:                                                ; preds = %3
  %7 = tail call ptr @realloc(ptr noundef %1, i64 noundef %2) #26
  br label %8

8:                                                ; preds = %3, %6
  %.0 = phi ptr [ %7, %6 ], [ null, %3 ]
  ret ptr %.0
}